target datalayout = "e-m:e-p270:32:32-p271:32:32-p272:64:64-i64:64-i128:128-f80:128-n8:16:32:64-S128"
target triple = "x86_64-pc-linux-gnu"

; Function Attrs: nounwind uwtable
define ptr @wc_rng_new(ptr noundef %0, i32 noundef %1, ptr noundef %2) #0 {
  %4 = alloca ptr, align 8
  %5 = alloca i32, align 4
  %6 = alloca ptr, align 8
  %7 = alloca ptr, align 8
  %8 = alloca i32, align 4
  %9 = alloca ptr, align 8
  store ptr %0, ptr %4, align 8, !tbaa !8
  store i32 %1, ptr %5, align 4, !tbaa !10
  store ptr %2, ptr %6, align 8, !tbaa !24
  call void @llvm.lifetime.start.p0(i64 8, ptr %7) #6
  %10 = call ptr @wolfSSL_Malloc(i64 noundef 32)
  store ptr %10, ptr %7, align 8, !tbaa !3
  %11 = load ptr, ptr %7, align 8, !tbaa !3
  %12 = icmp ne ptr %11, null
  br i1 %12, label %13, label %34

13:                                               ; preds = %3
  call void @llvm.lifetime.start.p0(i64 4, ptr %8) #6
  %14 = load ptr, ptr %7, align 8, !tbaa !3
  %15 = load ptr, ptr %4, align 8, !tbaa !8
  %16 = load i32, ptr %5, align 4, !tbaa !10
  %17 = load ptr, ptr %6, align 8, !tbaa !24
  %18 = call i32 @_InitRng(ptr noundef %14, ptr noundef %15, i32 noundef %16, ptr noundef %17, i32 noundef -2)
  %19 = icmp ne i32 %18, 0
  %20 = zext i1 %19 to i32
  store i32 %20, ptr %8, align 4, !tbaa !10
  %21 = load i32, ptr %8, align 4, !tbaa !10
  %22 = icmp ne i32 %21, 0
  br i1 %22, label %23, label %33

23:                                               ; preds = %13
  br label %24

24:                                               ; preds = %23
  call void @llvm.lifetime.start.p0(i64 8, ptr %9) #6
  %25 = load ptr, ptr %7, align 8, !tbaa !3
  store ptr %25, ptr %9, align 8, !tbaa !24
  %26 = load ptr, ptr %9, align 8, !tbaa !24
  %27 = icmp ne ptr %26, null
  br i1 %27, label %28, label %30

28:                                               ; preds = %24
  %29 = load ptr, ptr %9, align 8, !tbaa !24
  call void @wolfSSL_Free(ptr noundef %29)
  br label %30

30:                                               ; preds = %28, %24
  call void @llvm.lifetime.end.p0(i64 8, ptr %9) #6
  br label %31

31:                                               ; preds = %30
  br label %32

32:                                               ; preds = %31
  store ptr null, ptr %7, align 8, !tbaa !3
  br label %33

33:                                               ; preds = %32, %13
  call void @llvm.lifetime.end.p0(i64 4, ptr %8) #6
  br label %34

34:                                               ; preds = %33, %3
  %35 = load ptr, ptr %7, align 8, !tbaa !3
  call void @llvm.lifetime.end.p0(i64 8, ptr %7) #6
  ret ptr %35
}