; Function Attrs: nounwind uwtable
define ptr @wc_rng_new(ptr noundef %0, i32 noundef %1, ptr noundef %2) local_unnamed_addr #0 {
  %4 = tail call ptr @wolfSSL_Malloc(i64 noundef 32) #9
  %.not = icmp eq ptr %4, null
  br i1 %.not, label %8, label %5

5:                                                ; preds = %3
  %6 = tail call fastcc i32 @_InitRng(ptr noundef nonnull %4, ptr noundef %0, i32 noundef %1, ptr noundef %2, i32 noundef -2)
  %.not11 = icmp eq i32 %6, 0
  br i1 %.not11, label %8, label %7

7:                                                ; preds = %5
  tail call void @wolfSSL_Free(ptr noundef nonnull %4) #9
  br label %8

8:                                                ; preds = %5, %7, %3
  %.0 = phi ptr [ null, %3 ], [ null, %7 ], [ %4, %5 ]
  ret ptr %.0
}